target datalayout = "e-m:e-p270:32:32-p271:32:32-p272:64:64-i64:64-i128:128-f80:128-n8:16:32:64-S128"
target triple = "x86_64-pc-linux-gnu"

%struct.AVIOContext = type { ptr, ptr, i32, ptr, ptr, ptr, ptr, ptr, ptr, i64, i32, i32, i32, i32, i32, i64, ptr, ptr, ptr, ptr, i32, i32, ptr, ptr, ptr, i32, ptr, i64, i64 }

; Function Attrs: nounwind uwtable
define void @avio_w8(ptr noundef %0, i32 noundef %1) #0 {
  %3 = alloca ptr, align 8
  %4 = alloca i32, align 4
  store ptr %0, ptr %3, align 8, !tbaa !14
  store i32 %1, ptr %4, align 4, !tbaa !11
  %5 = load i32, ptr %4, align 4, !tbaa !11
  %6 = trunc i32 %5 to i8
  %7 = load ptr, ptr %3, align 8, !tbaa !14
  %8 = getelementptr inbounds nuw %struct.AVIOContext, ptr %7, i32 0, i32 3
  %9 = load ptr, ptr %8, align 8, !tbaa !23
  %10 = getelementptr inbounds nuw i8, ptr %9, i32 1
  store ptr %10, ptr %8, align 8, !tbaa !23
  store i8 %6, ptr %9, align 1, !tbaa !50
  %11 = load ptr, ptr %3, align 8, !tbaa !14
  %12 = getelementptr inbounds nuw %struct.AVIOContext, ptr %11, i32 0, i32 3
  %13 = load ptr, ptr %12, align 8, !tbaa !23
  %14 = load ptr, ptr %3, align 8, !tbaa !14
  %15 = getelementptr inbounds nuw %struct.AVIOContext, ptr %14, i32 0, i32 4
  %16 = load ptr, ptr %15, align 8, !tbaa !38
  %17 = icmp uge ptr %13, %16
  br i1 %17, label %18, label %20

18:                                               ; preds = %2
  %19 = load ptr, ptr %3, align 8, !tbaa !14
  call void @flush_buffer(ptr noundef %19)
  br label %20

20:                                               ; preds = %18, %2
  ret void
}

; Function Attrs: nounwind uwtable
define i32 @avio_put_str(ptr noundef %0, ptr noundef %1) #0 {
  %3 = alloca ptr, align 8
  %4 = alloca ptr, align 8
  %5 = alloca i32, align 4
  store ptr %0, ptr %3, align 8, !tbaa !14
  store ptr %1, ptr %4, align 8, !tbaa !9
  call void @llvm.lifetime.start.p0(i64 4, ptr %5) #12
  store i32 1, ptr %5, align 4, !tbaa !11
  %6 = load ptr, ptr %4, align 8, !tbaa !9
  %7 = icmp ne ptr %6, null
  br i1 %7, label %8, label %18

8:                                                ; preds = %2
  %9 = load ptr, ptr %4, align 8, !tbaa !9
  %10 = call i64 @strlen(ptr noundef %9) #13
  %11 = load i32, ptr %5, align 4, !tbaa !11
  %12 = sext i32 %11 to i64
  %13 = add i64 %12, %10
  %14 = trunc i64 %13 to i32
  store i32 %14, ptr %5, align 4, !tbaa !11
  %15 = load ptr, ptr %3, align 8, !tbaa !14
  %16 = load ptr, ptr %4, align 8, !tbaa !9
  %17 = load i32, ptr %5, align 4, !tbaa !11
  call void @avio_write(ptr noundef %15, ptr noundef %16, i32 noundef %17)
  br label %20

18:                                               ; preds = %2
  %19 = load ptr, ptr %3, align 8, !tbaa !14
  call void @avio_w8(ptr noundef %19, i32 noundef 0)
  br label %20

20:                                               ; preds = %18, %8
  %21 = load i32, ptr %5, align 4, !tbaa !11
  call void @llvm.lifetime.end.p0(i64 4, ptr %5) #12
  ret i32 %21
}