; Function Attrs: nounwind uwtable
define noundef i32 @avio_put_str(ptr noundef %0, ptr noundef %1) local_unnamed_addr #3 {
  %.not = icmp eq ptr %1, null
  br i1 %.not, label %7, label %3

3:                                                ; preds = %2
  %4 = tail call i64 @strlen(ptr noundef nonnull dereferenceable(1) %1) #15
  %5 = trunc i64 %4 to i32
  %6 = add i32 %5, 1
  tail call void @avio_write(ptr noundef %0, ptr noundef nonnull %1, i32 noundef %6)
  br label %avio_w8.exit

7:                                                ; preds = %2
  %8 = getelementptr inbounds nuw i8, ptr %0, i64 24
  %9 = load ptr, ptr %8, align 8, !tbaa !16
  %10 = getelementptr inbounds nuw i8, ptr %9, i64 1
  store ptr %10, ptr %8, align 8, !tbaa !16
  store i8 0, ptr %9, align 1, !tbaa !33
  %11 = load ptr, ptr %8, align 8, !tbaa !16
  %12 = getelementptr inbounds nuw i8, ptr %0, i64 32
  %13 = load ptr, ptr %12, align 8, !tbaa !19
  %.not.i = icmp ult ptr %11, %13
  br i1 %.not.i, label %avio_w8.exit, label %14

14:                                               ; preds = %7
  tail call fastcc void @flush_buffer(ptr noundef nonnull %0)
  br label %avio_w8.exit

avio_w8.exit:                                     ; preds = %14, %7, %3
  %.0 = phi i32 [ %6, %3 ], [ 1, %7 ], [ 1, %14 ]
  ret i32 %.0
}